; Function Attrs: nounwind uwtable
define ptr @l_Lean_Elab_Tactic_BVDecide_Frontend_Normalize_passPipeline___lambda__3(ptr noundef readonly captures(none) %0, ptr noundef %1, ptr noundef %2, ptr readnone captures(none) %3, ptr noundef %4, ptr noundef %5, ptr noundef %6, ptr noundef %7, ptr noundef %8, ptr noundef %9, ptr noundef %10) local_unnamed_addr #0 {
  %12 = getelementptr inbounds nuw i8, ptr %0, i64 27
  %13 = load i8, ptr %12, align 1, !tbaa !13
  %14 = icmp eq i8 %13, 0
  br i1 %14, label %32, label %15

15:                                               ; preds = %11
  %16 = load ptr, ptr @l_Lean_Elab_Tactic_BVDecide_Frontend_Normalize_andFlatteningPass, align 8, !tbaa !9
  %17 = ptrtoint ptr %1 to i64
  %18 = and i64 %17, 1
  %.not = icmp eq i64 %18, 0
  br i1 %.not, label %19, label %lean_inc.exit

19:                                               ; preds = %15
  %.val.i = load i32, ptr %1, align 4, !tbaa !4
  %20 = icmp sgt i32 %.val.i, 0
  br i1 %20, label %21, label %23, !prof !14

21:                                               ; preds = %19
  %22 = add nuw i32 %.val.i, 1
  store i32 %22, ptr %1, align 4, !tbaa !4
  br label %lean_inc.exit

23:                                               ; preds = %19
  %.not.i = icmp eq i32 %.val.i, 0
  br i1 %.not.i, label %lean_inc.exit, label %24

24:                                               ; preds = %23
  tail call void @lean_inc_ref_cold(ptr noundef nonnull %1) #4
  br label %lean_inc.exit

lean_inc.exit:                                    ; preds = %24, %23, %21, %15
  tail call void @lean_inc_heartbeat() #4
  %25 = tail call noalias ptr @mi_malloc_small(i64 noundef 24) #4
  %26 = icmp eq ptr %25, null
  br i1 %26, label %27, label %lean_alloc_ctor.exit

27:                                               ; preds = %lean_inc.exit
  tail call void @lean_internal_panic_out_of_memory() #5
  unreachable

lean_alloc_ctor.exit:                             ; preds = %lean_inc.exit
  %28 = getelementptr inbounds nuw i8, ptr %25, i64 4
  store i32 1, ptr %25, align 4, !tbaa !4
  store i32 16908312, ptr %28, align 4
  %29 = getelementptr inbounds nuw i8, ptr %25, i64 8
  store ptr %16, ptr %29, align 8, !tbaa !9
  %30 = getelementptr inbounds nuw i8, ptr %25, i64 16
  store ptr %1, ptr %30, align 8, !tbaa !9
  %31 = tail call ptr @l_List_appendTR___rarg(ptr noundef %2, ptr noundef nonnull %25) #4
  br label %32

32:                                               ; preds = %11, %lean_alloc_ctor.exit
  %.sink = phi ptr [ %31, %lean_alloc_ctor.exit ], [ %2, %11 ]
  %33 = tail call ptr @l_Lean_Elab_Tactic_BVDecide_Frontend_Normalize_passPipeline___lambda__2(ptr noundef nonnull %0, ptr noundef %1, ptr noundef %.sink, ptr nonnull poison, ptr noundef %4, ptr noundef %5, ptr noundef %6, ptr noundef %7, ptr noundef %8, ptr noundef %9, ptr noundef %10)
  ret ptr %33
}